; Function Attrs: mustprogress uwtable
define void @_ZNK6casadi7BSpline14serialize_bodyERNS_17SerializingStreamE(ptr noundef nonnull align 8 dereferenceable(256) %0, ptr noundef nonnull align 8 dereferenceable(73) %1) unnamed_addr #3 align 2 personality ptr @__gxx_personality_v0 {
  %3 = alloca %"class.std::__cxx11::basic_string", align 8
  %4 = alloca %"class.std::allocator.0", align 1
  tail call void @_ZNK6casadi13BSplineCommon14serialize_bodyERNS_17SerializingStreamE(ptr noundef nonnull align 8 dereferenceable(232) %0, ptr noundef nonnull align 8 dereferenceable(73) %1)
  call void @_ZNSaIcEC1Ev(ptr noundef nonnull align 1 dereferenceable(1) %4) #23
  %5 = invoke noundef ptr @_ZNSt7__cxx1112basic_stringIcSt11char_traitsIcESaIcEE13_M_local_dataEv(ptr noundef nonnull align 8 dereferenceable(32) %3)
          to label %.noexc unwind label %24

.noexc:                                           ; preds = %2
  invoke void @_ZNSt7__cxx1112basic_stringIcSt11char_traitsIcESaIcEE12_Alloc_hiderC1EPcRKS3_(ptr noundef nonnull align 8 dereferenceable(8) %3, ptr noundef %5, ptr noundef nonnull align 1 dereferenceable(1) %4)
          to label %.noexc6 unwind label %24

.noexc6:                                          ; preds = %.noexc
  invoke void @_ZNSt7__cxx1112basic_stringIcSt11char_traitsIcESaIcEE12_M_constructIPKcEEvT_S8_St20forward_iterator_tag(ptr noundef nonnull align 8 dereferenceable(32) %3, ptr noundef nonnull @.str.13, ptr noundef nonnull getelementptr inbounds ([16 x i8], ptr @.str.13, i64 0, i64 15))
          to label %_ZNSt7__cxx1112basic_stringIcSt11char_traitsIcESaIcEEC2IS3_EEPKcRKS3_.exit unwind label %6

6:                                                ; preds = %.noexc6
  %7 = landingpad { ptr, i32 }
          cleanup
  call void @_ZNSaIcED2Ev(ptr noundef nonnull align 1 dereferenceable(1) %3) #23
  br label %.body

_ZNSt7__cxx1112basic_stringIcSt11char_traitsIcESaIcEEC2IS3_EEPKcRKS3_.exit: ; preds = %.noexc6
  %8 = getelementptr inbounds i8, ptr %0, i64 232
  %9 = getelementptr inbounds i8, ptr %1, i64 72
  %10 = load i8, ptr %9, align 8
  %11 = and i8 %10, 1
  %.not.i = icmp eq i8 %11, 0
  br i1 %.not.i, label %.noexc7, label %12

12:                                               ; preds = %_ZNSt7__cxx1112basic_stringIcSt11char_traitsIcESaIcEEC2IS3_EEPKcRKS3_.exit
  invoke void @_ZN6casadi17SerializingStream4packERKNSt7__cxx1112basic_stringIcSt11char_traitsIcESaIcEEE(ptr noundef nonnull align 8 dereferenceable(73) %1, ptr noundef nonnull align 8 dereferenceable(32) %3)
          to label %.noexc7 unwind label %.loopexit.split-lp

.noexc7:                                          ; preds = %12, %_ZNSt7__cxx1112basic_stringIcSt11char_traitsIcESaIcEEC2IS3_EEPKcRKS3_.exit
  invoke void @_ZN6casadi17SerializingStream8decorateEc(ptr noundef nonnull align 8 dereferenceable(73) %1, i8 noundef signext 86)
          to label %.noexc8 unwind label %.loopexit.split-lp

.noexc8:                                          ; preds = %.noexc7
  %13 = getelementptr inbounds i8, ptr %0, i64 240
  %14 = load ptr, ptr %13, align 8
  %15 = load ptr, ptr %8, align 8
  %16 = ptrtoint ptr %14 to i64
  %17 = ptrtoint ptr %15 to i64
  %18 = sub i64 %16, %17
  %19 = ashr exact i64 %18, 3
  invoke void @_ZN6casadi17SerializingStream4packEx(ptr noundef nonnull align 8 dereferenceable(73) %1, i64 noundef %19)
          to label %.noexc9 unwind label %.loopexit.split-lp

.noexc9:                                          ; preds = %.noexc8
  %20 = load ptr, ptr %8, align 8
  %21 = load ptr, ptr %13, align 8
  %.not9.i.i = icmp eq ptr %20, %21
  br i1 %.not9.i.i, label %_ZN6casadi17SerializingStream4packISt6vectorIdSaIdEEEEvRKNSt7__cxx1112basic_stringIcSt11char_traitsIcESaIcEEERKT_.exit, label %.lr.ph.i.i

.lr.ph.i.i:                                       ; preds = %.noexc9, %.noexc10
  %.sroa.06.010.i.i = phi ptr [ %23, %.noexc10 ], [ %20, %.noexc9 ]
  %22 = load double, ptr %.sroa.06.010.i.i, align 8
  invoke void @_ZN6casadi17SerializingStream4packEd(ptr noundef nonnull align 8 dereferenceable(73) %1, double noundef %22)
          to label %.noexc10 unwind label %.loopexit

.noexc10:                                         ; preds = %.lr.ph.i.i
  %23 = getelementptr inbounds i8, ptr %.sroa.06.010.i.i, i64 8
  %.not.i.i = icmp eq ptr %23, %21
  br i1 %.not.i.i, label %_ZN6casadi17SerializingStream4packISt6vectorIdSaIdEEEEvRKNSt7__cxx1112basic_stringIcSt11char_traitsIcESaIcEEERKT_.exit, label %.lr.ph.i.i

_ZN6casadi17SerializingStream4packISt6vectorIdSaIdEEEEvRKNSt7__cxx1112basic_stringIcSt11char_traitsIcESaIcEEERKT_.exit: ; preds = %.noexc10, %.noexc9
  call void @_ZNSt7__cxx1112basic_stringIcSt11char_traitsIcESaIcEED1Ev(ptr noundef nonnull align 8 dereferenceable(32) %3) #23
  call void @_ZNSaIcED1Ev(ptr noundef nonnull align 1 dereferenceable(1) %4) #23
  ret void

24:                                               ; preds = %.noexc, %2
  %25 = landingpad { ptr, i32 }
          cleanup
  br label %.body

.loopexit:                                        ; preds = %.lr.ph.i.i
  %lpad.loopexit = landingpad { ptr, i32 }
          cleanup
  br label %26

.loopexit.split-lp:                               ; preds = %12, %.noexc7, %.noexc8
  %lpad.loopexit.split-lp = landingpad { ptr, i32 }
          cleanup
  br label %26

26:                                               ; preds = %.loopexit.split-lp, %.loopexit
  %lpad.phi = phi { ptr, i32 } [ %lpad.loopexit, %.loopexit ], [ %lpad.loopexit.split-lp, %.loopexit.split-lp ]
  call void @_ZNSt7__cxx1112basic_stringIcSt11char_traitsIcESaIcEED1Ev(ptr noundef nonnull align 8 dereferenceable(32) %3) #23
  br label %.body

.body:                                            ; preds = %24, %6, %26
  %.pn = phi { ptr, i32 } [ %lpad.phi, %26 ], [ %25, %24 ], [ %7, %6 ]
  call void @_ZNSaIcED1Ev(ptr noundef nonnull align 1 dereferenceable(1) %4) #23
  resume { ptr, i32 } %.pn
}